; Function Attrs: mustprogress uwtable
define hidden void @_ZNK4cvc58internal7printer4smt211Smt2Printer35toStreamCmdGetQuantifierEliminationERSoNS0_12NodeTemplateILb1EEEb(ptr nonnull readnone align 8 captures(none) %0, ptr noundef nonnull align 8 dereferenceable(8) %1, ptr noundef readonly captures(none) %2, i1 noundef zeroext %3) unnamed_addr #3 align 2 personality ptr @__gxx_personality_v0 {
  %5 = alloca i8, align 1
  %6 = alloca i8, align 1
  %7 = alloca i8, align 1
  call void @llvm.lifetime.start.p0(i64 1, ptr nonnull %7)
  store i8 40, ptr %7, align 1, !tbaa !15
  %8 = load ptr, ptr %1, align 8, !tbaa !40
  %9 = getelementptr i8, ptr %8, i64 -24
  %10 = load i64, ptr %9, align 8
  %11 = getelementptr inbounds i8, ptr %1, i64 %10
  %12 = getelementptr inbounds nuw i8, ptr %11, i64 16
  %13 = load i64, ptr %12, align 8, !tbaa !55
  %.not.i = icmp eq i64 %13, 0
  br i1 %.not.i, label %16, label %14

14:                                               ; preds = %4
  %15 = call noundef nonnull align 8 dereferenceable(8) ptr @_ZSt16__ostream_insertIcSt11char_traitsIcEERSt13basic_ostreamIT_T0_ES6_PKS3_l(ptr noundef nonnull align 8 dereferenceable(8) %1, ptr noundef nonnull %7, i64 noundef 1)
  br label %_ZStlsISt11char_traitsIcEERSt13basic_ostreamIcT_ES5_c.exit

16:                                               ; preds = %4
  %17 = tail call noundef nonnull align 8 dereferenceable(8) ptr @_ZNSo3putEc(ptr noundef nonnull align 8 dereferenceable(8) %1, i8 noundef signext 40)
  br label %_ZStlsISt11char_traitsIcEERSt13basic_ostreamIcT_ES5_c.exit

_ZStlsISt11char_traitsIcEERSt13basic_ostreamIcT_ES5_c.exit: ; preds = %14, %16
  %.0.i = phi ptr [ %15, %14 ], [ %1, %16 ]
  call void @llvm.lifetime.end.p0(i64 1, ptr nonnull %7)
  %18 = select i1 %3, ptr @.str.449, ptr @.str.450
  %19 = select i1 %3, i64 6, i64 15
  %20 = call noundef nonnull align 8 dereferenceable(8) ptr @_ZSt16__ostream_insertIcSt11char_traitsIcEERSt13basic_ostreamIT_T0_ES6_PKS3_l(ptr noundef nonnull align 8 dereferenceable(8) %.0.i, ptr noundef nonnull %18, i64 noundef %19)
  call void @llvm.lifetime.start.p0(i64 1, ptr nonnull %6)
  store i8 32, ptr %6, align 1, !tbaa !15
  %21 = load ptr, ptr %.0.i, align 8, !tbaa !40
  %22 = getelementptr i8, ptr %21, i64 -24
  %23 = load i64, ptr %22, align 8
  %24 = getelementptr inbounds i8, ptr %.0.i, i64 %23
  %25 = getelementptr inbounds nuw i8, ptr %24, i64 16
  %26 = load i64, ptr %25, align 8, !tbaa !55
  %.not.i4 = icmp eq i64 %26, 0
  br i1 %.not.i4, label %29, label %27

27:                                               ; preds = %_ZStlsISt11char_traitsIcEERSt13basic_ostreamIcT_ES5_c.exit
  %28 = call noundef nonnull align 8 dereferenceable(8) ptr @_ZSt16__ostream_insertIcSt11char_traitsIcEERSt13basic_ostreamIT_T0_ES6_PKS3_l(ptr noundef nonnull align 8 dereferenceable(8) %.0.i, ptr noundef nonnull %6, i64 noundef 1)
  br label %_ZStlsISt11char_traitsIcEERSt13basic_ostreamIcT_ES5_c.exit6

29:                                               ; preds = %_ZStlsISt11char_traitsIcEERSt13basic_ostreamIcT_ES5_c.exit
  %30 = call noundef nonnull align 8 dereferenceable(8) ptr @_ZNSo3putEc(ptr noundef nonnull align 8 dereferenceable(8) %.0.i, i8 noundef signext 32)
  br label %_ZStlsISt11char_traitsIcEERSt13basic_ostreamIcT_ES5_c.exit6

_ZStlsISt11char_traitsIcEERSt13basic_ostreamIcT_ES5_c.exit6: ; preds = %27, %29
  %.0.i5 = phi ptr [ %28, %27 ], [ %.0.i, %29 ]
  call void @llvm.lifetime.end.p0(i64 1, ptr nonnull %6)
  %31 = load ptr, ptr %2, align 8, !tbaa !17
  call void @_ZNK4cvc58internal4expr9NodeValue8toStreamERSo(ptr noundef nonnull align 8 dereferenceable(24) %31, ptr noundef nonnull align 8 dereferenceable(8) %.0.i5)
  call void @llvm.lifetime.start.p0(i64 1, ptr nonnull %5)
  store i8 41, ptr %5, align 1, !tbaa !15
  %32 = load ptr, ptr %.0.i5, align 8, !tbaa !40
  %33 = getelementptr i8, ptr %32, i64 -24
  %34 = load i64, ptr %33, align 8
  %35 = getelementptr inbounds i8, ptr %.0.i5, i64 %34
  %36 = getelementptr inbounds nuw i8, ptr %35, i64 16
  %37 = load i64, ptr %36, align 8, !tbaa !55
  %.not.i7 = icmp eq i64 %37, 0
  br i1 %.not.i7, label %40, label %38

38:                                               ; preds = %_ZStlsISt11char_traitsIcEERSt13basic_ostreamIcT_ES5_c.exit6
  %39 = call noundef nonnull align 8 dereferenceable(8) ptr @_ZSt16__ostream_insertIcSt11char_traitsIcEERSt13basic_ostreamIT_T0_ES6_PKS3_l(ptr noundef nonnull align 8 dereferenceable(8) %.0.i5, ptr noundef nonnull %5, i64 noundef 1)
  br label %42

40:                                               ; preds = %_ZStlsISt11char_traitsIcEERSt13basic_ostreamIcT_ES5_c.exit6
  %41 = call noundef nonnull align 8 dereferenceable(8) ptr @_ZNSo3putEc(ptr noundef nonnull align 8 dereferenceable(8) %.0.i5, i8 noundef signext 41)
  br label %42

42:                                               ; preds = %38, %40
  call void @llvm.lifetime.end.p0(i64 1, ptr nonnull %5)
  ret void
}